target datalayout = "e-m:e-p270:32:32-p271:32:32-p272:64:64-i64:64-i128:128-f80:128-n8:16:32:64-S128"
target triple = "x86_64-pc-linux-gnu"

%struct._zval_struct = type { %union._zend_value, %union.anon, %union.anon.2 }
%union._zend_value = type { i64 }
%union.anon = type { i32 }
%union.anon.2 = type { i32 }
%struct._zend_refcounted_h = type { i32, %union.anon.3 }
%union.anon.3 = type { i32 }
%struct._zend_string = type { %struct._zend_refcounted_h, i64, i64, [1 x i8] }
%struct.anon.0 = type { i8, i8, %union.anon.1 }
%union.anon.1 = type { i16 }
%struct.php_sqlite3_bound_param = type { i64, ptr, i64, %struct._zval_struct }

; Function Attrs: alwaysinline nounwind uwtable
define internal i32 @zend_gc_delref(ptr noundef %0) #8 {
  %2 = alloca ptr, align 8
  store ptr %0, ptr %2, align 8, !tbaa !206
  %3 = load ptr, ptr %2, align 8, !tbaa !206
  %4 = getelementptr inbounds nuw %struct._zend_refcounted_h, ptr %3, i32 0, i32 0
  %5 = load i32, ptr %4, align 4, !tbaa !208
  %6 = icmp ugt i32 %5, 0
  call void @llvm.assume(i1 %6)
  br label %7

7:                                                ; preds = %1
  br label %8

8:                                                ; preds = %7
  %9 = load ptr, ptr %2, align 8, !tbaa !206
  %10 = getelementptr inbounds nuw %struct._zend_refcounted_h, ptr %9, i32 0, i32 0
  %11 = load i32, ptr %10, align 4, !tbaa !208
  %12 = add i32 %11, -1
  store i32 %12, ptr %10, align 4, !tbaa !208
  ret i32 %12
}

; Function Attrs: alwaysinline nounwind uwtable
define internal i32 @zval_gc_flags(i32 noundef %0) #8 {
  %2 = alloca i32, align 4
  store i32 %0, ptr %2, align 4, !tbaa !63
  %3 = load i32, ptr %2, align 4, !tbaa !63
  %4 = lshr i32 %3, 0
  %5 = and i32 %4, 1008
  ret i32 %5
}

; Function Attrs: alwaysinline nounwind uwtable
define internal zeroext i8 @zval_get_type(ptr noundef %0) #8 {
  %2 = alloca ptr, align 8
  store ptr %0, ptr %2, align 8, !tbaa !9
  %3 = load ptr, ptr %2, align 8, !tbaa !9
  %4 = getelementptr inbounds nuw %struct._zval_struct, ptr %3, i32 0, i32 1
  %5 = getelementptr inbounds nuw %struct.anon.0, ptr %4, i32 0, i32 0
  %6 = load i8, ptr %5, align 8, !tbaa !13
  ret i8 %6
}

; Function Attrs: alwaysinline nounwind uwtable
define internal void @zend_string_release_ex(ptr noundef %0, i1 noundef zeroext %1) #8 {
  %3 = alloca ptr, align 8
  %4 = alloca i8, align 1
  store ptr %0, ptr %3, align 8, !tbaa !76
  %5 = zext i1 %1 to i8
  store i8 %5, ptr %4, align 1, !tbaa !79
  %6 = load ptr, ptr %3, align 8, !tbaa !76
  %7 = getelementptr inbounds nuw %struct._zend_string, ptr %6, i32 0, i32 0
  %8 = getelementptr inbounds nuw %struct._zend_refcounted_h, ptr %7, i32 0, i32 1
  %9 = load i32, ptr %8, align 4, !tbaa !13
  %10 = call i32 @zval_gc_flags(i32 noundef %9)
  %11 = and i32 %10, 64
  %12 = icmp ne i32 %11, 0
  br i1 %12, label %27, label %13

13:                                               ; preds = %2
  %14 = load ptr, ptr %3, align 8, !tbaa !76
  %15 = getelementptr inbounds nuw %struct._zend_string, ptr %14, i32 0, i32 0
  %16 = call i32 @zend_gc_delref(ptr noundef %15)
  %17 = icmp eq i32 %16, 0
  br i1 %17, label %18, label %26

18:                                               ; preds = %13
  %19 = load i8, ptr %4, align 1, !tbaa !79, !range !59, !noundef !60
  %20 = trunc i8 %19 to i1
  br i1 %20, label %21, label %23

21:                                               ; preds = %18
  %22 = load ptr, ptr %3, align 8, !tbaa !76
  call void @free(ptr noundef %22) #15
  br label %25

23:                                               ; preds = %18
  %24 = load ptr, ptr %3, align 8, !tbaa !76
  call void @_efree(ptr noundef %24)
  br label %25

25:                                               ; preds = %23, %21
  br label %26

26:                                               ; preds = %25, %13
  br label %27

27:                                               ; preds = %26, %2
  ret void
}

; Function Attrs: nounwind uwtable
define internal void @sqlite3_param_dtor(ptr noundef %0) #0 {
  %2 = alloca ptr, align 8
  %3 = alloca ptr, align 8
  store ptr %0, ptr %2, align 8, !tbaa !9
  call void @llvm.lifetime.start.p0(i64 8, ptr %3) #15
  %4 = load ptr, ptr %2, align 8, !tbaa !9
  %5 = getelementptr inbounds nuw %struct._zval_struct, ptr %4, i32 0, i32 0
  %6 = load ptr, ptr %5, align 8, !tbaa !13
  store ptr %6, ptr %3, align 8, !tbaa !162
  %7 = load ptr, ptr %3, align 8, !tbaa !162
  %8 = getelementptr inbounds nuw %struct.php_sqlite3_bound_param, ptr %7, i32 0, i32 1
  %9 = load ptr, ptr %8, align 8, !tbaa !220
  %10 = icmp ne ptr %9, null
  br i1 %10, label %11, label %15

11:                                               ; preds = %1
  %12 = load ptr, ptr %3, align 8, !tbaa !162
  %13 = getelementptr inbounds nuw %struct.php_sqlite3_bound_param, ptr %12, i32 0, i32 1
  %14 = load ptr, ptr %13, align 8, !tbaa !220
  call void @zend_string_release_ex(ptr noundef %14, i1 noundef zeroext false)
  br label %15

15:                                               ; preds = %11, %1
  %16 = load ptr, ptr %3, align 8, !tbaa !162
  %17 = getelementptr inbounds nuw %struct.php_sqlite3_bound_param, ptr %16, i32 0, i32 3
  %18 = call zeroext i8 @zval_get_type(ptr noundef %17)
  %19 = zext i8 %18 to i32
  %20 = icmp eq i32 %19, 1
  br i1 %20, label %30, label %21

21:                                               ; preds = %15
  %22 = load ptr, ptr %3, align 8, !tbaa !162
  %23 = getelementptr inbounds nuw %struct.php_sqlite3_bound_param, ptr %22, i32 0, i32 3
  call void @zval_ptr_dtor(ptr noundef %23)
  br label %24

24:                                               ; preds = %21
  %25 = load ptr, ptr %3, align 8, !tbaa !162
  %26 = getelementptr inbounds nuw %struct.php_sqlite3_bound_param, ptr %25, i32 0, i32 3
  %27 = getelementptr inbounds nuw %struct._zval_struct, ptr %26, i32 0, i32 1
  store i32 0, ptr %27, align 8, !tbaa !13
  br label %28

28:                                               ; preds = %24
  br label %29

29:                                               ; preds = %28
  br label %30

30:                                               ; preds = %29, %15
  %31 = load ptr, ptr %3, align 8, !tbaa !162
  call void @_efree(ptr noundef %31)
  call void @llvm.lifetime.end.p0(i64 8, ptr %3) #15
  ret void
}