; Function Attrs: nounwind uwtable
define internal void @sqlite3_param_dtor(ptr noundef readonly captures(none) %0) #0 {
  %2 = load ptr, ptr %0, align 8, !tbaa !8
  %3 = getelementptr inbounds nuw i8, ptr %2, i64 8
  %4 = load ptr, ptr %3, align 8, !tbaa !147
  %.not = icmp eq ptr %4, null
  br i1 %.not, label %zend_string_release_ex.exit, label %5

5:                                                ; preds = %1
  %6 = getelementptr inbounds nuw i8, ptr %4, i64 4
  %7 = load i32, ptr %6, align 4, !tbaa !8
  %8 = and i32 %7, 64
  %.not.i = icmp eq i32 %8, 0
  br i1 %.not.i, label %9, label %zend_string_release_ex.exit

9:                                                ; preds = %5
  %10 = load i32, ptr %4, align 4, !tbaa !70
  %11 = icmp ne i32 %10, 0
  tail call void @llvm.assume(i1 %11)
  %12 = add i32 %10, -1
  store i32 %12, ptr %4, align 4, !tbaa !70
  %13 = icmp eq i32 %12, 0
  br i1 %13, label %14, label %zend_string_release_ex.exit

14:                                               ; preds = %9
  tail call void @_efree(ptr noundef nonnull %4) #17
  br label %zend_string_release_ex.exit

zend_string_release_ex.exit:                      ; preds = %14, %9, %5, %1
  %15 = getelementptr inbounds nuw i8, ptr %2, i64 32
  %16 = load i8, ptr %15, align 8, !tbaa !8
  %17 = icmp eq i8 %16, 1
  br i1 %17, label %20, label %18

18:                                               ; preds = %zend_string_release_ex.exit
  %19 = getelementptr inbounds nuw i8, ptr %2, i64 24
  tail call void @zval_ptr_dtor(ptr noundef nonnull %19) #17
  store i32 0, ptr %15, align 8, !tbaa !8
  br label %20

20:                                               ; preds = %18, %zend_string_release_ex.exit
  tail call void @_efree(ptr noundef nonnull %2) #17
  ret void
}